target datalayout = "e-m:e-p270:32:32-p271:32:32-p272:64:64-i64:64-i128:128-f80:128-n8:16:32:64-S128"
target triple = "x86_64-pc-linux-gnu"

; Function Attrs: nounwind uwtable
define internal zeroext i1 @char_is_alphanum_(i8 noundef signext %0) #0 {
  %2 = alloca i1, align 1
  %3 = alloca i8, align 1
  store i8 %0, ptr %3, align 1
  %4 = load i8, ptr %3, align 1
  %5 = sext i8 %4 to i32
  switch i32 %5, label %7 [
    i32 97, label %6
    i32 98, label %6
    i32 99, label %6
    i32 100, label %6
    i32 101, label %6
    i32 102, label %6
    i32 103, label %6
    i32 104, label %6
    i32 105, label %6
    i32 106, label %6
    i32 107, label %6
    i32 108, label %6
    i32 109, label %6
    i32 110, label %6
    i32 111, label %6
    i32 112, label %6
    i32 113, label %6
    i32 114, label %6
    i32 115, label %6
    i32 116, label %6
    i32 117, label %6
    i32 118, label %6
    i32 119, label %6
    i32 120, label %6
    i32 121, label %6
    i32 122, label %6
    i32 65, label %6
    i32 66, label %6
    i32 67, label %6
    i32 68, label %6
    i32 69, label %6
    i32 70, label %6
    i32 71, label %6
    i32 72, label %6
    i32 73, label %6
    i32 74, label %6
    i32 75, label %6
    i32 76, label %6
    i32 77, label %6
    i32 78, label %6
    i32 79, label %6
    i32 80, label %6
    i32 81, label %6
    i32 82, label %6
    i32 83, label %6
    i32 84, label %6
    i32 85, label %6
    i32 86, label %6
    i32 87, label %6
    i32 88, label %6
    i32 89, label %6
    i32 90, label %6
    i32 48, label %6
    i32 49, label %6
    i32 50, label %6
    i32 51, label %6
    i32 52, label %6
    i32 53, label %6
    i32 54, label %6
    i32 55, label %6
    i32 56, label %6
    i32 57, label %6
    i32 95, label %6
  ]

6:                                                ; preds = %1, %1, %1, %1, %1, %1, %1, %1, %1, %1, %1, %1, %1, %1, %1, %1, %1, %1, %1, %1, %1, %1, %1, %1, %1, %1, %1, %1, %1, %1, %1, %1, %1, %1, %1, %1, %1, %1, %1, %1, %1, %1, %1, %1, %1, %1, %1, %1, %1, %1, %1, %1, %1, %1, %1, %1, %1, %1, %1, %1, %1, %1, %1
  store i1 true, ptr %2, align 1
  br label %8

7:                                                ; preds = %1
  store i1 false, ptr %2, align 1
  br label %8

8:                                                ; preds = %7, %6
  %9 = load i1, ptr %2, align 1
  ret i1 %9
}